target datalayout = "e-m:e-p270:32:32-p271:32:32-p272:64:64-i64:64-i128:128-f80:128-n8:16:32:64-S128"
target triple = "x86_64-pc-linux-gnu"

%struct.AVFormatContext = type { ptr, ptr, ptr, ptr, ptr, i32, i32, ptr, i32, ptr, i32, ptr, ptr, i64, i64, i64, i32, i32, i32, i64, i64, ptr, i32, i32, ptr, i32, i32, i32, i32, ptr, i64, i32, i32, %struct.AVIOInterruptCB, i32, i32, i32, i32, i64, i32, i32, i32, i32, i32, i32, i32, i32, i32, i32, i32, i32, i64, i32, i32, i32, i32, i32, ptr, ptr, ptr, ptr, i32, ptr, ptr, ptr, ptr, i32, ptr, ptr, i64, ptr, ptr, ptr, i64 }
%struct.AVIOInterruptCB = type { ptr, ptr }
%struct.MpegDemuxContext = type { i32, [256 x i8], i32, i32, i32, i32 }

@.str.5 = private unnamed_addr constant [5 x i8] c"IMKH\00", align 1
@.str.6 = private unnamed_addr constant [7 x i8] c"Sofdec\00", align 1

; Function Attrs: alwaysinline nounwind uwtable
define internal i64 @avio_tell(ptr noundef %0) #3 {
  %2 = alloca ptr, align 8
  store ptr %0, ptr %2, align 8, !tbaa !117
  %3 = load ptr, ptr %2, align 8, !tbaa !117
  %4 = call i64 @avio_seek(ptr noundef %3, i64 noundef 0, i32 noundef 1)
  ret i64 %4
}

; Function Attrs: nounwind uwtable
define internal i32 @mpegps_read_header(ptr noundef %0) #0 {
  %2 = alloca ptr, align 8
  %3 = alloca ptr, align 8
  %4 = alloca [7 x i8], align 1
  %5 = alloca i64, align 8
  store ptr %0, ptr %2, align 8, !tbaa !18
  call void @llvm.lifetime.start.p0(i64 8, ptr %3) #12
  %6 = load ptr, ptr %2, align 8, !tbaa !18
  %7 = getelementptr inbounds nuw %struct.AVFormatContext, ptr %6, i32 0, i32 3
  %8 = load ptr, ptr %7, align 8, !tbaa !20
  store ptr %8, ptr %3, align 8, !tbaa !35
  call void @llvm.lifetime.start.p0(i64 7, ptr %4) #12
  call void @llvm.memset.p0.i64(ptr align 1 %4, i8 0, i64 7, i1 false)
  call void @llvm.lifetime.start.p0(i64 8, ptr %5) #12
  %9 = load ptr, ptr %2, align 8, !tbaa !18
  %10 = getelementptr inbounds nuw %struct.AVFormatContext, ptr %9, i32 0, i32 4
  %11 = load ptr, ptr %10, align 8, !tbaa !37
  %12 = call i64 @avio_tell(ptr noundef %11)
  store i64 %12, ptr %5, align 8, !tbaa !38
  %13 = load ptr, ptr %3, align 8, !tbaa !35
  %14 = getelementptr inbounds nuw %struct.MpegDemuxContext, ptr %13, i32 0, i32 0
  store i32 255, ptr %14, align 4, !tbaa !39
  %15 = load ptr, ptr %2, align 8, !tbaa !18
  %16 = getelementptr inbounds nuw %struct.AVFormatContext, ptr %15, i32 0, i32 5
  %17 = load i32, ptr %16, align 8, !tbaa !41
  %18 = or i32 %17, 1
  store i32 %18, ptr %16, align 8, !tbaa !41
  %19 = load ptr, ptr %2, align 8, !tbaa !18
  %20 = getelementptr inbounds nuw %struct.AVFormatContext, ptr %19, i32 0, i32 4
  %21 = load ptr, ptr %20, align 8, !tbaa !37
  %22 = getelementptr inbounds [7 x i8], ptr %4, i64 0, i64 0
  %23 = call i32 @avio_get_str(ptr noundef %21, i32 noundef 6, ptr noundef %22, i32 noundef 7)
  %24 = getelementptr inbounds [7 x i8], ptr %4, i64 0, i64 0
  %25 = call i32 @memcmp(ptr noundef @.str.5, ptr noundef %24, i64 noundef 4) #13
  %26 = icmp ne i32 %25, 0
  br i1 %26, label %30, label %27

27:                                               ; preds = %1
  %28 = load ptr, ptr %3, align 8, !tbaa !35
  %29 = getelementptr inbounds nuw %struct.MpegDemuxContext, ptr %28, i32 0, i32 4
  store i32 1, ptr %29, align 4, !tbaa !42
  br label %44

30:                                               ; preds = %1
  %31 = getelementptr inbounds [7 x i8], ptr %4, i64 0, i64 0
  %32 = call i32 @memcmp(ptr noundef @.str.6, ptr noundef %31, i64 noundef 6) #13
  %33 = icmp ne i32 %32, 0
  br i1 %33, label %37, label %34

34:                                               ; preds = %30
  %35 = load ptr, ptr %3, align 8, !tbaa !35
  %36 = getelementptr inbounds nuw %struct.MpegDemuxContext, ptr %35, i32 0, i32 2
  store i32 1, ptr %36, align 4, !tbaa !43
  br label %43

37:                                               ; preds = %30
  %38 = load ptr, ptr %2, align 8, !tbaa !18
  %39 = getelementptr inbounds nuw %struct.AVFormatContext, ptr %38, i32 0, i32 4
  %40 = load ptr, ptr %39, align 8, !tbaa !37
  %41 = load i64, ptr %5, align 8, !tbaa !38
  %42 = call i64 @avio_seek(ptr noundef %40, i64 noundef %41, i32 noundef 0)
  br label %43

43:                                               ; preds = %37, %34
  br label %44

44:                                               ; preds = %43, %27
  call void @llvm.lifetime.end.p0(i64 8, ptr %5) #12
  call void @llvm.lifetime.end.p0(i64 7, ptr %4) #12
  call void @llvm.lifetime.end.p0(i64 8, ptr %3) #12
  ret i32 0
}