; Function Attrs: nounwind uwtable
define internal noundef i32 @mpegps_read_header(ptr noundef captures(none) %0) #1 {
  %2 = alloca [7 x i8], align 1
  %3 = getelementptr inbounds nuw i8, ptr %0, i64 24
  %4 = load ptr, ptr %3, align 8, !tbaa !16
  call void @llvm.lifetime.start.p0(i64 7, ptr nonnull %2) #13
  call void @llvm.memset.p0.i64(ptr noundef nonnull align 1 dereferenceable(7) %2, i8 0, i64 7, i1 false)
  %5 = getelementptr inbounds nuw i8, ptr %0, i64 32
  %6 = load ptr, ptr %5, align 8, !tbaa !31
  %7 = tail call i64 @avio_seek(ptr noundef %6, i64 noundef 0, i32 noundef 1) #13
  store i32 255, ptr %4, align 4, !tbaa !32
  %8 = getelementptr inbounds nuw i8, ptr %0, i64 40
  %9 = load i32, ptr %8, align 8, !tbaa !34
  %10 = or i32 %9, 1
  store i32 %10, ptr %8, align 8, !tbaa !34
  %11 = load ptr, ptr %5, align 8, !tbaa !31
  %12 = call i32 @avio_get_str(ptr noundef %11, i32 noundef 6, ptr noundef nonnull %2, i32 noundef 7) #13
  %bcmp = call i32 @bcmp(ptr noundef nonnull dereferenceable(4) @.str.5, ptr noundef nonnull dereferenceable(4) %2, i64 4)
  %.not = icmp eq i32 %bcmp, 0
  br i1 %.not, label %13, label %15

13:                                               ; preds = %1
  %14 = getelementptr inbounds nuw i8, ptr %4, i64 268
  store i32 1, ptr %14, align 4, !tbaa !35
  br label %21

15:                                               ; preds = %1
  %bcmp8 = call i32 @bcmp(ptr noundef nonnull dereferenceable(6) @.str.6, ptr noundef nonnull dereferenceable(6) %2, i64 6)
  %.not9 = icmp eq i32 %bcmp8, 0
  br i1 %.not9, label %16, label %18

16:                                               ; preds = %15
  %17 = getelementptr inbounds nuw i8, ptr %4, i64 260
  store i32 1, ptr %17, align 4, !tbaa !36
  br label %21

18:                                               ; preds = %15
  %19 = load ptr, ptr %5, align 8, !tbaa !31
  %20 = call i64 @avio_seek(ptr noundef %19, i64 noundef %7, i32 noundef 0) #13
  br label %21

21:                                               ; preds = %16, %18, %13
  call void @llvm.lifetime.end.p0(i64 7, ptr nonnull %2) #13
  ret i32 0
}